target datalayout = "e-m:e-p270:32:32-p271:32:32-p272:64:64-i64:64-i128:128-f80:128-n8:16:32:64-S128"
target triple = "x86_64-unknown-linux-gnu"

module asm ".section\09\22.initcall6.init\22, \22a\22\09\09"
module asm "__initcall__kmod_nls_utf8__303_65_init_nls_utf86:\09\09\09"
module asm ".long\09init_nls_utf8 - .\09"
module asm ".previous\09\09\09\09\09"

%struct.nls_table = type { ptr, ptr, ptr, ptr, ptr, ptr, ptr, ptr }

@table = internal global %struct.nls_table { ptr @.str, ptr null, ptr @uni2char, ptr @char2uni, ptr @identity, ptr @identity, ptr null, ptr null }, align 8
@__UNIQUE_ID___addressable_init_nls_utf8304 = internal global ptr @init_nls_utf8, section ".discard.addressable", align 8
@__exitcall_exit_nls_utf8 = internal global ptr @exit_nls_utf8, section ".exitcall.exit", align 8
@__UNIQUE_ID_file305 = internal constant [30 x i8] c"nls_utf8.file=fs/nls/nls_utf8\00", section ".modinfo", align 1
@__UNIQUE_ID_license306 = internal constant [30 x i8] c"nls_utf8.license=Dual BSD/GPL\00", section ".modinfo", align 1
@.str = private unnamed_addr constant [5 x i8] c"utf8\00", align 1
@identity = internal global [256 x i8] zeroinitializer, align 16
@llvm.compiler.used = appending global [5 x ptr] [ptr @__UNIQUE_ID___addressable_init_nls_utf8304, ptr @__UNIQUE_ID_file305, ptr @__UNIQUE_ID_license306, ptr @__exitcall_exit_nls_utf8, ptr @exit_nls_utf8], section "llvm.metadata"

; Function Attrs: cold fn_ret_thunk_extern nounwind null_pointer_is_valid optsize
define internal void @exit_nls_utf8() #0 section ".exit.text" align 16 {
  %1 = tail call i32 @unregister_nls(ptr noundef nonnull @table) #4
  ret void
}

; Function Attrs: null_pointer_is_valid
declare dso_local i32 @unregister_nls(ptr noundef) local_unnamed_addr #1

; Function Attrs: cold fn_ret_thunk_extern nounwind null_pointer_is_valid optsize
define internal i32 @init_nls_utf8() #0 section ".init.text" align 16 {
  br label %1

1:                                                ; preds = %1, %0
  %2 = phi i64 [ 0, %0 ], [ %5, %1 ]
  %3 = trunc i64 %2 to i8
  %4 = getelementptr [256 x i8], ptr @identity, i64 0, i64 %2
  store i8 %3, ptr %4, align 1
  %5 = add nuw nsw i64 %2, 1
  %6 = icmp eq i64 %5, 256
  br i1 %6, label %7, label %1, !llvm.loop !5

7:                                                ; preds = %1
  %8 = tail call i32 @__register_nls(ptr noundef nonnull @table, ptr noundef null) #4
  ret i32 %8
}

; Function Attrs: fn_ret_thunk_extern nounwind null_pointer_is_valid
define internal i32 @uni2char(i16 noundef zeroext %0, ptr noundef %1, i32 noundef %2) #2 align 16 {
  %4 = icmp slt i32 %2, 1
  br i1 %4, label %10, label %5

5:                                                ; preds = %3
  %6 = zext i16 %0 to i32
  %7 = tail call i32 @utf32_to_utf8(i32 noundef %6, ptr noundef %1, i32 noundef %2) #4
  %8 = icmp slt i32 %7, 0
  br i1 %8, label %9, label %10

9:                                                ; preds = %5
  store i8 63, ptr %1, align 1
  br label %10

10:                                               ; preds = %9, %5, %3
  %11 = phi i32 [ -22, %9 ], [ -36, %3 ], [ %7, %5 ]
  ret i32 %11
}

; Function Attrs: fn_ret_thunk_extern nounwind null_pointer_is_valid
define internal i32 @char2uni(ptr noundef %0, i32 noundef %1, ptr nocapture noundef writeonly %2) #2 align 16 {
  %4 = alloca i32, align 4
  call void @llvm.lifetime.start.p0(i64 4, ptr nonnull %4) #4
  store i32 0, ptr %4, align 4, !annotation !8
  %5 = call i32 @utf8_to_utf32(ptr noundef %0, i32 noundef %1, ptr noundef nonnull %4) #4
  %6 = icmp slt i32 %5, 0
  %7 = load i32, ptr %4, align 4
  %8 = icmp ugt i32 %7, 65535
  %9 = select i1 %6, i1 true, i1 %8
  %10 = trunc i32 %7 to i16
  %11 = select i1 %9, i16 63, i16 %10
  %12 = select i1 %9, i32 -22, i32 %5
  store i16 %11, ptr %2, align 2
  call void @llvm.lifetime.end.p0(i64 4, ptr nonnull %4) #4
  ret i32 %12
}

; Function Attrs: nocallback nofree nosync nounwind willreturn memory(argmem: readwrite)
declare void @llvm.lifetime.start.p0(i64 immarg, ptr nocapture) #3

; Function Attrs: null_pointer_is_valid
declare dso_local i32 @utf32_to_utf8(i32 noundef, ptr noundef, i32 noundef) local_unnamed_addr #1

; Function Attrs: nocallback nofree nosync nounwind willreturn memory(argmem: readwrite)
declare void @llvm.lifetime.end.p0(i64 immarg, ptr nocapture) #3

; Function Attrs: null_pointer_is_valid
declare dso_local i32 @utf8_to_utf32(ptr noundef, i32 noundef, ptr noundef) local_unnamed_addr #1

; Function Attrs: null_pointer_is_valid
declare dso_local i32 @__register_nls(ptr noundef, ptr noundef) local_unnamed_addr #1


!llvm.module.flags = !{!0, !1, !2, !3, !4}

!0 = !{i32 1, !"wchar_size", i32 2}
!1 = !{i32 8, !"cf-protection-branch", i32 1}
!2 = !{i32 4, !"function_return_thunk_extern", i32 1}
!3 = !{i32 4, !"indirect_branch_cs_prefix", i32 1}
!4 = !{i32 4, !"SkipRaxSetup", i32 1}
!5 = distinct !{!5, !6, !7}
!6 = !{!"llvm.loop.mustprogress"}
!7 = !{!"llvm.loop.unroll.disable"}
!8 = !{!"auto-init"}
